; Function Attrs: mustprogress nofree norecurse nosync nounwind willreturn memory(read, inaccessiblemem: none) uwtable
define noundef zeroext i1 @_ZNK5Yosys3AST7AstNode6asBoolEv(ptr nocapture noundef nonnull readonly align 8 dereferenceable(284) %0) local_unnamed_addr #11 align 2 {
  %2 = getelementptr inbounds i8, ptr %0, i64 112
  %3 = load ptr, ptr %2, align 8
  %4 = getelementptr inbounds i8, ptr %0, i64 120
  %5 = load ptr, ptr %4, align 8
  %.not = icmp eq ptr %3, %5
  br i1 %.not, label %._crit_edge, label %.lr.ph

.lr.ph:                                           ; preds = %1, %.lr.ph
  %.sroa.05.08 = phi ptr [ %8, %.lr.ph ], [ %3, %1 ]
  %6 = load i8, ptr %.sroa.05.08, align 1
  %7 = icmp eq i8 %6, 1
  %8 = getelementptr inbounds i8, ptr %.sroa.05.08, i64 1
  %.not11 = icmp eq ptr %8, %5
  %or.cond = select i1 %7, i1 true, i1 %.not11
  br i1 %or.cond, label %._crit_edge, label %.lr.ph

._crit_edge:                                      ; preds = %.lr.ph, %1
  %.lcssa = phi i1 [ false, %1 ], [ %7, %.lr.ph ]
  ret i1 %.lcssa
}